; Function Attrs: nounwind uwtable
define ptr @zend_std_get_properties_for(ptr noundef %0, i32 noundef %1) local_unnamed_addr #0 {
  %3 = alloca i32, align 4
  %switch = icmp eq i32 %1, 0
  %4 = getelementptr inbounds i8, ptr %0, i64 24
  %5 = load ptr, ptr %4, align 8
  br i1 %switch, label %6, label %._crit_edge

6:                                                ; preds = %2
  %7 = getelementptr inbounds i8, ptr %5, i64 152
  %8 = load ptr, ptr %7, align 8
  %.not = icmp eq ptr %8, null
  br i1 %.not, label %._crit_edge, label %9

9:                                                ; preds = %6
  %10 = call ptr %8(ptr noundef nonnull %0, ptr noundef nonnull %3) #15
  %11 = icmp eq ptr %10, null
  %12 = load i32, ptr %3, align 4
  %13 = icmp ne i32 %12, 0
  %or.cond = select i1 %11, i1 true, i1 %13
  br i1 %or.cond, label %27, label %14

14:                                               ; preds = %9
  %15 = getelementptr inbounds i8, ptr %10, i64 4
  %16 = load i32, ptr %15, align 4
  %17 = and i32 %16, 64
  %.not22 = icmp eq i32 %17, 0
  br i1 %.not22, label %.sink.split, label %27

._crit_edge:                                      ; preds = %2, %6
  %18 = getelementptr inbounds i8, ptr %5, i64 104
  %19 = load ptr, ptr %18, align 8
  %20 = tail call ptr %19(ptr noundef nonnull %0) #15
  %.not20 = icmp eq ptr %20, null
  br i1 %.not20, label %27, label %21

21:                                               ; preds = %._crit_edge
  %22 = getelementptr inbounds i8, ptr %20, i64 4
  %23 = load i32, ptr %22, align 4
  %24 = and i32 %23, 64
  %.not21 = icmp eq i32 %24, 0
  br i1 %.not21, label %.sink.split, label %27

.sink.split:                                      ; preds = %21, %14
  %.sink = phi ptr [ %10, %14 ], [ %20, %21 ]
  %25 = load i32, ptr %.sink, align 4
  %26 = add i32 %25, 1
  store i32 %26, ptr %.sink, align 4
  br label %27

27:                                               ; preds = %.sink.split, %._crit_edge, %21, %9, %14
  %.0 = phi ptr [ %10, %14 ], [ %10, %9 ], [ %20, %21 ], [ null, %._crit_edge ], [ %.sink, %.sink.split ]
  ret ptr %.0
}